target datalayout = "e-m:e-p270:32:32-p271:32:32-p272:64:64-i64:64-i128:128-f80:128-n8:16:32:64-S128"
target triple = "x86_64-pc-linux-gnu"

%struct.H5B2_hdr_t = type { %struct.H5C_cache_entry_t, %struct.H5B2_node_ptr_t, i8, i8, i32, i32, i16, i8, ptr, i64, i64, i64, i64, i8, i8, i8, ptr, ptr, ptr, ptr, ptr, ptr, ptr, i8, ptr, ptr, i64, ptr, ptr }
%struct.H5C_cache_entry_t = type { ptr, i64, i64, ptr, i8, ptr, i8, i8, i8, i8, i32, i8, i8, i8, i8, i8, i32, ptr, i32, i32, i32, i32, i32, i8, i8, ptr, ptr, ptr, ptr, ptr, ptr, i8, i32, i8, i64, ptr, i64, i64, i32, i8, i32, i32, i8, ptr, ptr, ptr }
%struct.H5B2_node_ptr_t = type { i64, i16, i64 }
%struct.H5B2_leaf_t = type { %struct.H5C_cache_entry_t, ptr, ptr, i16, ptr, ptr, i64 }

@H5B2_init_g = external global i8, align 1
@H5_libterm_g = external global i8, align 1
@.str.3 = private unnamed_addr constant [103 x i8] c"generated/home/dtcxzyw/WorkSpace/Projects/compilers/llvm-opt-benchmark/bench/hdf5/hdf5/src/H5B2cache.c\00", align 1
@H5E_BTREE_g = external global i64, align 8
@H5E_BADVALUE_g = external global i64, align 8
@H5E_CANTUNDEPEND_g = external global i64, align 8
@.str.14 = private unnamed_addr constant [35 x i8] c"unknown action from metadata cache\00", align 1
@H5E_CANTDEPEND_g = external global i64, align 8
@.str.26 = private unnamed_addr constant [34 x i8] c"unable to create flush dependency\00", align 1
@.str.27 = private unnamed_addr constant [35 x i8] c"unable to destroy flush dependency\00", align 1
@__func__.H5B2__cache_leaf_notify = private unnamed_addr constant [24 x i8] c"H5B2__cache_leaf_notify\00", align 1
@.str.35 = private unnamed_addr constant [79 x i8] c"unable to destroy flush dependency between leaf node and v2 B-tree 'top' proxy\00", align 1

; Function Attrs: nounwind uwtable
define internal i32 @H5B2__cache_leaf_notify(i32 noundef %0, ptr noundef %1) #0 {
  %3 = alloca i32, align 4
  %4 = alloca ptr, align 8
  %5 = alloca ptr, align 8
  %6 = alloca i32, align 4
  %7 = alloca i8, align 1
  store i32 %0, ptr %3, align 4, !tbaa !22
  store ptr %1, ptr %4, align 8, !tbaa !3
  call void @llvm.lifetime.start.p0(i64 8, ptr %5) #7
  %8 = load ptr, ptr %4, align 8, !tbaa !3
  store ptr %8, ptr %5, align 8, !tbaa !118
  call void @llvm.lifetime.start.p0(i64 4, ptr %6) #7
  store i32 0, ptr %6, align 4, !tbaa !22
  call void @llvm.lifetime.start.p0(i64 1, ptr %7) #7
  store i8 0, ptr %7, align 1, !tbaa !11
  %9 = load i8, ptr @H5B2_init_g, align 1, !tbaa !11, !range !13, !noundef !14
  %10 = trunc i8 %9 to i1
  br i1 %10, label %15, label %11

11:                                               ; preds = %2
  %12 = load i8, ptr @H5_libterm_g, align 1, !tbaa !11, !range !13, !noundef !14
  %13 = trunc i8 %12 to i1
  %14 = xor i1 %13, true
  br label %15

15:                                               ; preds = %11, %2
  %16 = phi i1 [ true, %2 ], [ %14, %11 ]
  %17 = xor i1 %16, true
  %18 = xor i1 %17, true
  %19 = zext i1 %18 to i32
  %20 = sext i32 %19 to i64
  %21 = call i64 @llvm.expect.i64(i64 %20, i64 1)
  %22 = icmp ne i64 %21, 0
  br i1 %22, label %23, label %144

23:                                               ; preds = %15
  %24 = load ptr, ptr %5, align 8, !tbaa !118
  %25 = getelementptr inbounds nuw %struct.H5B2_leaf_t, ptr %24, i32 0, i32 1
  %26 = load ptr, ptr %25, align 8, !tbaa !120
  %27 = getelementptr inbounds nuw %struct.H5B2_hdr_t, ptr %26, i32 0, i32 23
  %28 = load i8, ptr %27, align 8, !tbaa !68, !range !13, !noundef !14
  %29 = trunc i8 %28 to i1
  br i1 %29, label %30, label %141

30:                                               ; preds = %23
  %31 = load i32, ptr %3, align 4, !tbaa !22
  switch i32 %31, label %121 [
    i32 0, label %32
    i32 1, label %32
    i32 2, label %59
    i32 4, label %59
    i32 5, label %59
    i32 6, label %59
    i32 7, label %59
    i32 8, label %59
    i32 9, label %59
    i32 3, label %60
  ]

32:                                               ; preds = %30, %30
  %33 = load ptr, ptr %5, align 8, !tbaa !118
  %34 = getelementptr inbounds nuw %struct.H5B2_leaf_t, ptr %33, i32 0, i32 5
  %35 = load ptr, ptr %34, align 8, !tbaa !123
  %36 = load ptr, ptr %5, align 8, !tbaa !118
  %37 = call i32 @H5B2__create_flush_depend(ptr noundef %35, ptr noundef %36)
  %38 = icmp slt i32 %37, 0
  br i1 %38, label %39, label %58

39:                                               ; preds = %32
  br label %40

40:                                               ; preds = %39
  br label %41

41:                                               ; preds = %40
  br label %42

42:                                               ; preds = %41
  %43 = load i64, ptr @H5E_BTREE_g, align 8, !tbaa !19
  %44 = load i64, ptr @H5E_CANTDEPEND_g, align 8, !tbaa !19
  %45 = call i32 (ptr, ptr, i32, i64, i64, ptr, ...) @H5E_printf_stack(ptr noundef @.str.3, ptr noundef @__func__.H5B2__cache_leaf_notify, i32 noundef 1204, i64 noundef %43, i64 noundef %44, ptr noundef @.str.26)
  br label %46

46:                                               ; preds = %42
  br label %47

47:                                               ; preds = %46
  store i8 1, ptr %7, align 1, !tbaa !11
  %48 = load i8, ptr %7, align 1, !tbaa !11, !range !13, !noundef !14
  %49 = trunc i8 %48 to i1
  %50 = zext i1 %49 to i8
  store i8 %50, ptr %7, align 1, !tbaa !11
  br label %51

51:                                               ; preds = %47
  br label %52

52:                                               ; preds = %51
  br label %53

53:                                               ; preds = %52
  store i32 -1, ptr %6, align 4, !tbaa !22
  br label %143

54:                                               ; No predecessors!
  br label %55

55:                                               ; preds = %54
  br label %56

56:                                               ; preds = %55
  br label %57

57:                                               ; preds = %56
  br label %58

58:                                               ; preds = %57, %32
  br label %140

59:                                               ; preds = %30, %30, %30, %30, %30, %30, %30
  br label %140

60:                                               ; preds = %30
  %61 = load ptr, ptr %5, align 8, !tbaa !118
  %62 = getelementptr inbounds nuw %struct.H5B2_leaf_t, ptr %61, i32 0, i32 5
  %63 = load ptr, ptr %62, align 8, !tbaa !123
  %64 = load ptr, ptr %5, align 8, !tbaa !118
  %65 = call i32 @H5B2__destroy_flush_depend(ptr noundef %63, ptr noundef %64)
  %66 = icmp slt i32 %65, 0
  br i1 %66, label %67, label %86

67:                                               ; preds = %60
  br label %68

68:                                               ; preds = %67
  br label %69

69:                                               ; preds = %68
  br label %70

70:                                               ; preds = %69
  %71 = load i64, ptr @H5E_BTREE_g, align 8, !tbaa !19
  %72 = load i64, ptr @H5E_CANTUNDEPEND_g, align 8, !tbaa !19
  %73 = call i32 (ptr, ptr, i32, i64, i64, ptr, ...) @H5E_printf_stack(ptr noundef @.str.3, ptr noundef @__func__.H5B2__cache_leaf_notify, i32 noundef 1220, i64 noundef %71, i64 noundef %72, ptr noundef @.str.27)
  br label %74

74:                                               ; preds = %70
  br label %75

75:                                               ; preds = %74
  store i8 1, ptr %7, align 1, !tbaa !11
  %76 = load i8, ptr %7, align 1, !tbaa !11, !range !13, !noundef !14
  %77 = trunc i8 %76 to i1
  %78 = zext i1 %77 to i8
  store i8 %78, ptr %7, align 1, !tbaa !11
  br label %79

79:                                               ; preds = %75
  br label %80

80:                                               ; preds = %79
  br label %81

81:                                               ; preds = %80
  store i32 -1, ptr %6, align 4, !tbaa !22
  br label %143

82:                                               ; No predecessors!
  br label %83

83:                                               ; preds = %82
  br label %84

84:                                               ; preds = %83
  br label %85

85:                                               ; preds = %84
  br label %86

86:                                               ; preds = %85, %60
  %87 = load ptr, ptr %5, align 8, !tbaa !118
  %88 = getelementptr inbounds nuw %struct.H5B2_leaf_t, ptr %87, i32 0, i32 4
  %89 = load ptr, ptr %88, align 8, !tbaa !130
  %90 = icmp ne ptr %89, null
  br i1 %90, label %91, label %120

91:                                               ; preds = %86
  %92 = load ptr, ptr %5, align 8, !tbaa !118
  %93 = getelementptr inbounds nuw %struct.H5B2_leaf_t, ptr %92, i32 0, i32 4
  %94 = load ptr, ptr %93, align 8, !tbaa !130
  %95 = load ptr, ptr %5, align 8, !tbaa !118
  %96 = call i32 @H5AC_proxy_entry_remove_child(ptr noundef %94, ptr noundef %95)
  %97 = icmp slt i32 %96, 0
  br i1 %97, label %98, label %117

98:                                               ; preds = %91
  br label %99

99:                                               ; preds = %98
  br label %100

100:                                              ; preds = %99
  br label %101

101:                                              ; preds = %100
  %102 = load i64, ptr @H5E_BTREE_g, align 8, !tbaa !19
  %103 = load i64, ptr @H5E_CANTUNDEPEND_g, align 8, !tbaa !19
  %104 = call i32 (ptr, ptr, i32, i64, i64, ptr, ...) @H5E_printf_stack(ptr noundef @.str.3, ptr noundef @__func__.H5B2__cache_leaf_notify, i32 noundef 1227, i64 noundef %102, i64 noundef %103, ptr noundef @.str.35)
  br label %105

105:                                              ; preds = %101
  br label %106

106:                                              ; preds = %105
  store i8 1, ptr %7, align 1, !tbaa !11
  %107 = load i8, ptr %7, align 1, !tbaa !11, !range !13, !noundef !14
  %108 = trunc i8 %107 to i1
  %109 = zext i1 %108 to i8
  store i8 %109, ptr %7, align 1, !tbaa !11
  br label %110

110:                                              ; preds = %106
  br label %111

111:                                              ; preds = %110
  br label %112

112:                                              ; preds = %111
  store i32 -1, ptr %6, align 4, !tbaa !22
  br label %143

113:                                              ; No predecessors!
  br label %114

114:                                              ; preds = %113
  br label %115

115:                                              ; preds = %114
  br label %116

116:                                              ; preds = %115
  br label %117

117:                                              ; preds = %116, %91
  %118 = load ptr, ptr %5, align 8, !tbaa !118
  %119 = getelementptr inbounds nuw %struct.H5B2_leaf_t, ptr %118, i32 0, i32 4
  store ptr null, ptr %119, align 8, !tbaa !130
  br label %120

120:                                              ; preds = %117, %86
  br label %140

121:                                              ; preds = %30
  br label %122

122:                                              ; preds = %121
  br label %123

123:                                              ; preds = %122
  br label %124

124:                                              ; preds = %123
  %125 = load i64, ptr @H5E_BTREE_g, align 8, !tbaa !19
  %126 = load i64, ptr @H5E_BADVALUE_g, align 8, !tbaa !19
  %127 = call i32 (ptr, ptr, i32, i64, i64, ptr, ...) @H5E_printf_stack(ptr noundef @.str.3, ptr noundef @__func__.H5B2__cache_leaf_notify, i32 noundef 1234, i64 noundef %125, i64 noundef %126, ptr noundef @.str.14)
  br label %128

128:                                              ; preds = %124
  br label %129

129:                                              ; preds = %128
  store i8 1, ptr %7, align 1, !tbaa !11
  %130 = load i8, ptr %7, align 1, !tbaa !11, !range !13, !noundef !14
  %131 = trunc i8 %130 to i1
  %132 = zext i1 %131 to i8
  store i8 %132, ptr %7, align 1, !tbaa !11
  br label %133

133:                                              ; preds = %129
  br label %134

134:                                              ; preds = %133
  br label %135

135:                                              ; preds = %134
  store i32 -1, ptr %6, align 4, !tbaa !22
  br label %143

136:                                              ; No predecessors!
  br label %137

137:                                              ; preds = %136
  br label %138

138:                                              ; preds = %137
  br label %139

139:                                              ; preds = %138
  br label %140

140:                                              ; preds = %139, %120, %59, %58
  br label %142

141:                                              ; preds = %23
  br label %142

142:                                              ; preds = %141, %140
  br label %143

143:                                              ; preds = %142, %135, %112, %81, %53
  br label %144

144:                                              ; preds = %143, %15
  %145 = load i32, ptr %6, align 4, !tbaa !22
  call void @llvm.lifetime.end.p0(i64 1, ptr %7) #7
  call void @llvm.lifetime.end.p0(i64 4, ptr %6) #7
  call void @llvm.lifetime.end.p0(i64 8, ptr %5) #7
  ret i32 %145
}