; Function Attrs: nounwind uwtable
define internal range(i32 -1, 1) i32 @H5B2__cache_leaf_notify(i32 noundef %0, ptr noundef %1) #0 {
  %3 = load i8, ptr @H5B2_init_g, align 1, !tbaa !3, !range !7, !noundef !8
  %4 = trunc nuw i8 %3 to i1
  %5 = load i8, ptr @H5_libterm_g, align 1, !range !7
  %6 = trunc nuw i8 %5 to i1
  %7 = xor i1 %6, true
  %8 = select i1 %4, i1 true, i1 %7
  br i1 %8, label %9, label %49, !prof !9

9:                                                ; preds = %2
  %10 = getelementptr inbounds nuw i8, ptr %1, i64 248
  %11 = load ptr, ptr %10, align 8, !tbaa !103
  %12 = getelementptr inbounds nuw i8, ptr %11, i64 392
  %13 = load i8, ptr %12, align 8, !tbaa !58, !range !7, !noundef !8
  %14 = trunc nuw i8 %13 to i1
  br i1 %14, label %15, label %49

15:                                               ; preds = %9
  switch i32 %0, label %45 [
    i32 0, label %16
    i32 1, label %16
    i32 2, label %49
    i32 4, label %49
    i32 5, label %49
    i32 6, label %49
    i32 7, label %49
    i32 8, label %49
    i32 9, label %49
    i32 3, label %25
  ]

16:                                               ; preds = %15, %15
  %17 = getelementptr inbounds nuw i8, ptr %1, i64 280
  %18 = load ptr, ptr %17, align 8, !tbaa !106
  %19 = tail call i32 @H5B2__create_flush_depend(ptr noundef %18, ptr noundef nonnull %1) #6
  %20 = icmp slt i32 %19, 0
  br i1 %20, label %21, label %49

21:                                               ; preds = %16
  %22 = load i64, ptr @H5E_BTREE_g, align 8, !tbaa !15
  %23 = load i64, ptr @H5E_CANTDEPEND_g, align 8, !tbaa !15
  %24 = tail call i32 (ptr, ptr, i32, i64, i64, ptr, ...) @H5E_printf_stack(ptr noundef nonnull @.str.3, ptr noundef nonnull @__func__.H5B2__cache_leaf_notify, i32 noundef 1204, i64 noundef %22, i64 noundef %23, ptr noundef nonnull @.str.26) #6
  br label %49

25:                                               ; preds = %15
  %26 = getelementptr inbounds nuw i8, ptr %1, i64 280
  %27 = load ptr, ptr %26, align 8, !tbaa !106
  %28 = tail call i32 @H5B2__destroy_flush_depend(ptr noundef %27, ptr noundef nonnull %1) #6
  %29 = icmp slt i32 %28, 0
  br i1 %29, label %30, label %34

30:                                               ; preds = %25
  %31 = load i64, ptr @H5E_BTREE_g, align 8, !tbaa !15
  %32 = load i64, ptr @H5E_CANTUNDEPEND_g, align 8, !tbaa !15
  %33 = tail call i32 (ptr, ptr, i32, i64, i64, ptr, ...) @H5E_printf_stack(ptr noundef nonnull @.str.3, ptr noundef nonnull @__func__.H5B2__cache_leaf_notify, i32 noundef 1220, i64 noundef %31, i64 noundef %32, ptr noundef nonnull @.str.27) #6
  br label %49

34:                                               ; preds = %25
  %35 = getelementptr inbounds nuw i8, ptr %1, i64 272
  %36 = load ptr, ptr %35, align 8, !tbaa !113
  %.not = icmp eq ptr %36, null
  br i1 %.not, label %49, label %37

37:                                               ; preds = %34
  %38 = tail call i32 @H5AC_proxy_entry_remove_child(ptr noundef nonnull %36, ptr noundef nonnull %1) #6
  %39 = icmp slt i32 %38, 0
  br i1 %39, label %40, label %44

40:                                               ; preds = %37
  %41 = load i64, ptr @H5E_BTREE_g, align 8, !tbaa !15
  %42 = load i64, ptr @H5E_CANTUNDEPEND_g, align 8, !tbaa !15
  %43 = tail call i32 (ptr, ptr, i32, i64, i64, ptr, ...) @H5E_printf_stack(ptr noundef nonnull @.str.3, ptr noundef nonnull @__func__.H5B2__cache_leaf_notify, i32 noundef 1227, i64 noundef %41, i64 noundef %42, ptr noundef nonnull @.str.35) #6
  br label %49

44:                                               ; preds = %37
  store ptr null, ptr %35, align 8, !tbaa !113
  br label %49

45:                                               ; preds = %15
  %46 = load i64, ptr @H5E_BTREE_g, align 8, !tbaa !15
  %47 = load i64, ptr @H5E_BADVALUE_g, align 8, !tbaa !15
  %48 = tail call i32 (ptr, ptr, i32, i64, i64, ptr, ...) @H5E_printf_stack(ptr noundef nonnull @.str.3, ptr noundef nonnull @__func__.H5B2__cache_leaf_notify, i32 noundef 1234, i64 noundef %46, i64 noundef %47, ptr noundef nonnull @.str.14) #6
  br label %49

49:                                               ; preds = %21, %30, %40, %45, %9, %16, %15, %15, %15, %15, %15, %15, %15, %44, %34, %2
  %.0 = phi i32 [ -1, %45 ], [ -1, %30 ], [ -1, %40 ], [ 0, %44 ], [ 0, %34 ], [ 0, %15 ], [ 0, %15 ], [ 0, %15 ], [ 0, %15 ], [ 0, %15 ], [ 0, %15 ], [ 0, %15 ], [ -1, %21 ], [ 0, %16 ], [ 0, %9 ], [ 0, %2 ]
  ret i32 %.0
}